target datalayout = "e-m:e-p270:32:32-p271:32:32-p272:64:64-i64:64-i128:128-f80:128-n8:16:32:64-S128"
target triple = "x86_64-pc-linux-gnu"

%struct.object_id = type { [32 x i8], i32 }

@the_repository = external global ptr, align 8
@ref_stash = internal constant [11 x i8] c"refs/stash\00", align 1

; Function Attrs: nounwind uwtable
define internal i32 @do_clear_stash() #0 {
  %1 = alloca i32, align 4
  %2 = alloca %struct.object_id, align 4
  %3 = alloca i32, align 4
  call void @llvm.lifetime.start.p0(i64 36, ptr %2) #9
  %4 = load ptr, ptr @the_repository, align 8, !tbaa !13
  %5 = call i32 @repo_get_oid(ptr noundef %4, ptr noundef @ref_stash, ptr noundef %2)
  %6 = icmp ne i32 %5, 0
  br i1 %6, label %7, label %8

7:                                                ; preds = %0
  store i32 0, ptr %1, align 4
  store i32 1, ptr %3, align 4
  br label %12

8:                                                ; preds = %0
  %9 = load ptr, ptr @the_repository, align 8, !tbaa !13
  %10 = call ptr @get_main_ref_store(ptr noundef %9)
  %11 = call i32 @refs_delete_ref(ptr noundef %10, ptr noundef null, ptr noundef @ref_stash, ptr noundef %2, i32 noundef 0)
  store i32 %11, ptr %1, align 4
  store i32 1, ptr %3, align 4
  br label %12

12:                                               ; preds = %8, %7
  call void @llvm.lifetime.end.p0(i64 36, ptr %2) #9
  %13 = load i32, ptr %1, align 4
  ret i32 %13
}