; Function Attrs: nounwind uwtable
define internal fastcc i32 @do_clear_stash() unnamed_addr #0 {
  %1 = alloca %struct.object_id, align 4
  call void @llvm.lifetime.start.p0(i64 36, ptr nonnull %1) #15
  %2 = load ptr, ptr @the_repository, align 8, !tbaa !18
  %3 = call i32 @repo_get_oid(ptr noundef %2, ptr noundef nonnull @ref_stash, ptr noundef nonnull %1) #15
  %.not = icmp eq i32 %3, 0
  br i1 %.not, label %4, label %8

4:                                                ; preds = %0
  %5 = load ptr, ptr @the_repository, align 8, !tbaa !18
  %6 = call ptr @get_main_ref_store(ptr noundef %5) #15
  %7 = call i32 @refs_delete_ref(ptr noundef %6, ptr noundef null, ptr noundef nonnull @ref_stash, ptr noundef nonnull %1, i32 noundef 0) #15
  br label %8

8:                                                ; preds = %0, %4
  %.0 = phi i32 [ %7, %4 ], [ 0, %0 ]
  call void @llvm.lifetime.end.p0(i64 36, ptr nonnull %1) #15
  ret i32 %.0
}